; Function Attrs: cold nounwind optsize uwtable
define internal range(i32 -12, 1) i32 @escape124_decode_init(ptr noundef captures(none) initializes((136, 140)) %0) #0 {
  %2 = getelementptr inbounds nuw i8, ptr %0, i64 32
  %3 = load ptr, ptr %2, align 8, !tbaa !4
  %4 = getelementptr inbounds nuw i8, ptr %0, i64 136
  store i32 39, ptr %4, align 8, !tbaa !27
  %5 = getelementptr inbounds nuw i8, ptr %0, i64 112
  %6 = load i32, ptr %5, align 8, !tbaa !28
  %7 = lshr i32 %6, 3
  %8 = getelementptr inbounds nuw i8, ptr %0, i64 116
  %9 = load i32, ptr %8, align 4, !tbaa !29
  %10 = lshr i32 %9, 3
  %11 = mul i32 %10, %7
  %12 = getelementptr inbounds nuw i8, ptr %3, i64 8
  store i32 %11, ptr %12, align 8, !tbaa !30
  %13 = tail call ptr @av_frame_alloc() #7
  store ptr %13, ptr %3, align 8, !tbaa !33
  %.not = icmp eq ptr %13, null
  %. = select i1 %.not, i32 -12, i32 0
  ret i32 %.
}